target datalayout = "e-m:e-p270:32:32-p271:32:32-p272:64:64-i64:64-i128:128-f80:128-n8:16:32:64-S128"
target triple = "x86_64-unknown-linux-gnu"

%"struct.Assimp::Blender::ElemBase" = type { ptr, ptr }
%"struct.Assimp::Blender::MLoopUV" = type <{ %"struct.Assimp::Blender::ElemBase", [2 x float], i32, [4 x i8] }>

@_ZTVN6Assimp7Blender8ElemBaseE = linkonce_odr hidden unnamed_addr constant { [4 x ptr] } { [4 x ptr] [ptr null, ptr @_ZTIN6Assimp7Blender8ElemBaseE, ptr @_ZN6Assimp7Blender8ElemBaseD2Ev, ptr @_ZN6Assimp7Blender8ElemBaseD0Ev] }, comdat, align 8
@_ZTVN6Assimp7Blender7MLoopUVE = linkonce_odr hidden unnamed_addr constant { [4 x ptr] } { [4 x ptr] [ptr null, ptr @_ZTIN6Assimp7Blender7MLoopUVE, ptr @_ZN6Assimp7Blender7MLoopUVD2Ev, ptr @_ZN6Assimp7Blender7MLoopUVD0Ev] }, comdat, align 8

; Function Attrs: mustprogress nounwind uwtable
define linkonce_odr hidden void @_ZN6Assimp7Blender8ElemBaseD2Ev(ptr noundef nonnull align 8 dereferenceable(16) %this) unnamed_addr #0 comdat align 2 {
entry:
  %this.addr = alloca ptr, align 8
  store ptr %this, ptr %this.addr, align 8
  ret void
}

; Function Attrs: mustprogress nounwind uwtable
define linkonce_odr hidden void @_ZN6Assimp7Blender8ElemBaseC2Ev(ptr noundef nonnull align 8 dereferenceable(16) %this) unnamed_addr #0 comdat align 2 {
entry:
  %this.addr = alloca ptr, align 8
  store ptr %this, ptr %this.addr, align 8
  %this1 = load ptr, ptr %this.addr, align 8
  store ptr getelementptr inbounds ({ [4 x ptr] }, ptr @_ZTVN6Assimp7Blender8ElemBaseE, i32 0, i32 0, i32 2), ptr %this1, align 8
  %dna_type = getelementptr inbounds %"struct.Assimp::Blender::ElemBase", ptr %this1, i32 0, i32 1
  store ptr null, ptr %dna_type, align 8
  ret void
}

; Function Attrs: mustprogress nounwind uwtable
define linkonce_odr hidden void @_ZN6Assimp7Blender7MLoopUVD2Ev(ptr noundef nonnull align 8 dereferenceable(28) %this) unnamed_addr #0 comdat align 2 {
entry:
  %this.addr = alloca ptr, align 8
  store ptr %this, ptr %this.addr, align 8
  %this1 = load ptr, ptr %this.addr, align 8
  call void @_ZN6Assimp7Blender8ElemBaseD2Ev(ptr noundef nonnull align 8 dereferenceable(16) %this1) #14
  ret void
}

; Function Attrs: mustprogress nounwind uwtable
define linkonce_odr hidden void @_ZN6Assimp7Blender7MLoopUVC2Ev(ptr noundef nonnull align 8 dereferenceable(28) %this) unnamed_addr #0 comdat align 2 {
entry:
  %this.addr = alloca ptr, align 8
  store ptr %this, ptr %this.addr, align 8
  %this1 = load ptr, ptr %this.addr, align 8
  call void @_ZN6Assimp7Blender8ElemBaseC2Ev(ptr noundef nonnull align 8 dereferenceable(16) %this1)
  store ptr getelementptr inbounds ({ [4 x ptr] }, ptr @_ZTVN6Assimp7Blender7MLoopUVE, i32 0, i32 0, i32 2), ptr %this1, align 8
  ret void
}

; Function Attrs: mustprogress uwtable
define hidden noundef ptr @_ZN6Assimp7Blender13createMLoopUVEm(i64 noundef %cnt) #2 personality ptr @__gxx_personality_v0 {
entry:
  %cnt.addr = alloca i64, align 8
  %exn.slot = alloca ptr, align 8
  %ehselector.slot = alloca i32, align 4
  store i64 %cnt, ptr %cnt.addr, align 8
  %0 = load i64, ptr %cnt.addr, align 8
  %1 = call { i64, i1 } @llvm.umul.with.overflow.i64(i64 %0, i64 32)
  %2 = extractvalue { i64, i1 } %1, 1
  %3 = extractvalue { i64, i1 } %1, 0
  %4 = call { i64, i1 } @llvm.uadd.with.overflow.i64(i64 %3, i64 8)
  %5 = extractvalue { i64, i1 } %4, 1
  %6 = or i1 %2, %5
  %7 = extractvalue { i64, i1 } %4, 0
  %8 = select i1 %6, i64 -1, i64 %7
  %call = call noalias noundef nonnull ptr @_Znam(i64 noundef %8) #16
  store i64 %0, ptr %call, align 16
  %9 = getelementptr inbounds i8, ptr %call, i64 8
  %isempty = icmp eq i64 %0, 0
  br i1 %isempty, label %arrayctor.cont, label %new.ctorloop

new.ctorloop:                                     ; preds = %entry
  %arrayctor.end = getelementptr inbounds %"struct.Assimp::Blender::MLoopUV", ptr %9, i64 %0
  br label %arrayctor.loop

arrayctor.loop:                                   ; preds = %invoke.cont, %new.ctorloop
  %arrayctor.cur = phi ptr [ %9, %new.ctorloop ], [ %arrayctor.next, %invoke.cont ]
  invoke void @_ZN6Assimp7Blender7MLoopUVC2Ev(ptr noundef nonnull align 8 dereferenceable(28) %arrayctor.cur)
          to label %invoke.cont unwind label %lpad

invoke.cont:                                      ; preds = %arrayctor.loop
  %arrayctor.next = getelementptr inbounds %"struct.Assimp::Blender::MLoopUV", ptr %arrayctor.cur, i64 1
  %arrayctor.done = icmp eq ptr %arrayctor.next, %arrayctor.end
  br i1 %arrayctor.done, label %arrayctor.cont, label %arrayctor.loop

arrayctor.cont:                                   ; preds = %invoke.cont, %entry
  ret ptr %9

lpad:                                             ; preds = %arrayctor.loop
  %10 = landingpad { ptr, i32 }
          cleanup
  %11 = extractvalue { ptr, i32 } %10, 0
  store ptr %11, ptr %exn.slot, align 8
  %12 = extractvalue { ptr, i32 } %10, 1
  store i32 %12, ptr %ehselector.slot, align 4
  %arraydestroy.isempty = icmp eq ptr %9, %arrayctor.cur
  br i1 %arraydestroy.isempty, label %arraydestroy.done1, label %arraydestroy.body

arraydestroy.body:                                ; preds = %arraydestroy.body, %lpad
  %arraydestroy.elementPast = phi ptr [ %arrayctor.cur, %lpad ], [ %arraydestroy.element, %arraydestroy.body ]
  %arraydestroy.element = getelementptr inbounds %"struct.Assimp::Blender::MLoopUV", ptr %arraydestroy.elementPast, i64 -1
  call void @_ZN6Assimp7Blender7MLoopUVD2Ev(ptr noundef nonnull align 8 dereferenceable(28) %arraydestroy.element) #14
  %arraydestroy.done = icmp eq ptr %arraydestroy.element, %9
  br i1 %arraydestroy.done, label %arraydestroy.done1, label %arraydestroy.body

arraydestroy.done1:                               ; preds = %arraydestroy.body, %lpad
  call void @_ZdaPv(ptr noundef %call) #17
  br label %eh.resume

eh.resume:                                        ; preds = %arraydestroy.done1
  %exn = load ptr, ptr %exn.slot, align 8
  %sel = load i32, ptr %ehselector.slot, align 4
  %lpad.val = insertvalue { ptr, i32 } poison, ptr %exn, 0
  %lpad.val2 = insertvalue { ptr, i32 } %lpad.val, i32 %sel, 1
  resume { ptr, i32 } %lpad.val2
}